target datalayout = "e-m:e-p270:32:32-p271:32:32-p272:64:64-i64:64-i128:128-f80:128-n8:16:32:64-S128"
target triple = "x86_64-unknown-linux-gnu"

%"class.node::crypto::NodeBIO" = type { %"class.node::MemoryRetainer", ptr, i64, i64, i64, i32, ptr, ptr }
%"class.node::MemoryRetainer" = type { ptr }
%"class.node::crypto::NodeBIO::Buffer" = type { ptr, i64, i64, i64, ptr, ptr }

; Function Attrs: mustprogress nounwind uwtable
define dso_local void @_ZN4node6crypto7NodeBIO15TryMoveReadHeadEv(ptr noundef nonnull align 8 dereferenceable(64) %this) #4 align 2 {
entry:
  %this.addr = alloca ptr, align 8
  store ptr %this, ptr %this.addr, align 8
  %this1 = load ptr, ptr %this.addr, align 8
  br label %while.cond

while.cond:                                       ; preds = %if.end, %entry
  %read_head_ = getelementptr inbounds %"class.node::crypto::NodeBIO", ptr %this1, i32 0, i32 6
  %0 = load ptr, ptr %read_head_, align 8
  %read_pos_ = getelementptr inbounds %"class.node::crypto::NodeBIO::Buffer", ptr %0, i32 0, i32 1
  %1 = load i64, ptr %read_pos_, align 8
  %cmp = icmp ne i64 %1, 0
  br i1 %cmp, label %land.rhs, label %land.end

land.rhs:                                         ; preds = %while.cond
  %read_head_2 = getelementptr inbounds %"class.node::crypto::NodeBIO", ptr %this1, i32 0, i32 6
  %2 = load ptr, ptr %read_head_2, align 8
  %read_pos_3 = getelementptr inbounds %"class.node::crypto::NodeBIO::Buffer", ptr %2, i32 0, i32 1
  %3 = load i64, ptr %read_pos_3, align 8
  %read_head_4 = getelementptr inbounds %"class.node::crypto::NodeBIO", ptr %this1, i32 0, i32 6
  %4 = load ptr, ptr %read_head_4, align 8
  %write_pos_ = getelementptr inbounds %"class.node::crypto::NodeBIO::Buffer", ptr %4, i32 0, i32 2
  %5 = load i64, ptr %write_pos_, align 8
  %cmp5 = icmp eq i64 %3, %5
  br label %land.end

land.end:                                         ; preds = %land.rhs, %while.cond
  %6 = phi i1 [ false, %while.cond ], [ %cmp5, %land.rhs ]
  br i1 %6, label %while.body, label %while.end

while.body:                                       ; preds = %land.end
  %read_head_6 = getelementptr inbounds %"class.node::crypto::NodeBIO", ptr %this1, i32 0, i32 6
  %7 = load ptr, ptr %read_head_6, align 8
  %read_pos_7 = getelementptr inbounds %"class.node::crypto::NodeBIO::Buffer", ptr %7, i32 0, i32 1
  store i64 0, ptr %read_pos_7, align 8
  %read_head_8 = getelementptr inbounds %"class.node::crypto::NodeBIO", ptr %this1, i32 0, i32 6
  %8 = load ptr, ptr %read_head_8, align 8
  %write_pos_9 = getelementptr inbounds %"class.node::crypto::NodeBIO::Buffer", ptr %8, i32 0, i32 2
  store i64 0, ptr %write_pos_9, align 8
  %read_head_10 = getelementptr inbounds %"class.node::crypto::NodeBIO", ptr %this1, i32 0, i32 6
  %9 = load ptr, ptr %read_head_10, align 8
  %write_head_ = getelementptr inbounds %"class.node::crypto::NodeBIO", ptr %this1, i32 0, i32 7
  %10 = load ptr, ptr %write_head_, align 8
  %cmp11 = icmp ne ptr %9, %10
  br i1 %cmp11, label %if.then, label %if.end

if.then:                                          ; preds = %while.body
  %read_head_12 = getelementptr inbounds %"class.node::crypto::NodeBIO", ptr %this1, i32 0, i32 6
  %11 = load ptr, ptr %read_head_12, align 8
  %next_ = getelementptr inbounds %"class.node::crypto::NodeBIO::Buffer", ptr %11, i32 0, i32 4
  %12 = load ptr, ptr %next_, align 8
  %read_head_13 = getelementptr inbounds %"class.node::crypto::NodeBIO", ptr %this1, i32 0, i32 6
  store ptr %12, ptr %read_head_13, align 8
  br label %if.end

if.end:                                           ; preds = %if.then, %while.body
  br label %while.cond, !llvm.loop !13

while.end:                                        ; preds = %land.end
  ret void
}