; Function Attrs: mustprogress nofree norecurse nosync nounwind memory(readwrite, inaccessiblemem: none) uwtable
define dso_local void @_ZN4node6crypto7NodeBIO15TryMoveReadHeadEv(ptr nocapture noundef nonnull align 8 dereferenceable(64) %this) local_unnamed_addr #10 align 2 {
entry:
  %read_head_ = getelementptr inbounds i8, ptr %this, i64 48
  %0 = load ptr, ptr %read_head_, align 8
  %read_pos_2 = getelementptr inbounds i8, ptr %0, i64 8
  %1 = load i64, ptr %read_pos_2, align 8
  %cmp.not3 = icmp eq i64 %1, 0
  br i1 %cmp.not3, label %while.end, label %land.rhs.lr.ph

land.rhs.lr.ph:                                   ; preds = %entry
  %write_head_ = getelementptr inbounds i8, ptr %this, i64 56
  br label %land.rhs

land.rhs:                                         ; preds = %land.rhs.lr.ph, %if.end
  %2 = phi i64 [ %1, %land.rhs.lr.ph ], [ %10, %if.end ]
  %read_pos_4 = phi ptr [ %read_pos_2, %land.rhs.lr.ph ], [ %read_pos_, %if.end ]
  %3 = phi ptr [ %0, %land.rhs.lr.ph ], [ %9, %if.end ]
  %write_pos_ = getelementptr inbounds i8, ptr %3, i64 16
  %4 = load i64, ptr %write_pos_, align 8
  %cmp5 = icmp eq i64 %2, %4
  br i1 %cmp5, label %while.body, label %while.end

while.body:                                       ; preds = %land.rhs
  store i64 0, ptr %read_pos_4, align 8
  %5 = load ptr, ptr %read_head_, align 8
  %write_pos_9 = getelementptr inbounds i8, ptr %5, i64 16
  store i64 0, ptr %write_pos_9, align 8
  %6 = load ptr, ptr %read_head_, align 8
  %7 = load ptr, ptr %write_head_, align 8
  %cmp11.not = icmp eq ptr %6, %7
  br i1 %cmp11.not, label %if.end, label %if.then

if.then:                                          ; preds = %while.body
  %next_ = getelementptr inbounds i8, ptr %6, i64 32
  %8 = load ptr, ptr %next_, align 8
  store ptr %8, ptr %read_head_, align 8
  br label %if.end

if.end:                                           ; preds = %if.then, %while.body
  %9 = phi ptr [ %8, %if.then ], [ %6, %while.body ]
  %read_pos_ = getelementptr inbounds i8, ptr %9, i64 8
  %10 = load i64, ptr %read_pos_, align 8
  %cmp.not = icmp eq i64 %10, 0
  br i1 %cmp.not, label %while.end, label %land.rhs, !llvm.loop !6

while.end:                                        ; preds = %land.rhs, %if.end, %entry
  ret void
}